target datalayout = "e-m:e-p270:32:32-p271:32:32-p272:64:64-i64:64-i128:128-f80:128-n8:16:32:64-S128"
target triple = "x86_64-pc-linux-gnu"

%struct.AACArithState = type { [513 x i8], i32, [4 x i8], i16 }

; Function Attrs: nounwind uwtable
define i32 @ff_aac_ac_get_context(ptr noundef %0, i32 noundef %1, i32 noundef %2, i32 noundef %3) #0 {
  %5 = alloca i32, align 4
  %6 = alloca ptr, align 8
  %7 = alloca i32, align 4
  %8 = alloca i32, align 4
  %9 = alloca i32, align 4
  store ptr %0, ptr %6, align 8, !tbaa !4
  store i32 %1, ptr %7, align 4, !tbaa !9
  store i32 %2, ptr %8, align 4, !tbaa !9
  store i32 %3, ptr %9, align 4, !tbaa !9
  %10 = load ptr, ptr %6, align 8, !tbaa !4
  %11 = getelementptr inbounds nuw %struct.AACArithState, ptr %10, i32 0, i32 3
  %12 = load i16, ptr %11, align 4, !tbaa !20
  %13 = zext i16 %12 to i32
  %14 = ashr i32 %13, 8
  store i32 %14, ptr %7, align 4, !tbaa !9
  %15 = load i32, ptr %7, align 4, !tbaa !9
  %16 = load ptr, ptr %6, align 8, !tbaa !4
  %17 = getelementptr inbounds nuw %struct.AACArithState, ptr %16, i32 0, i32 0
  %18 = load i32, ptr %8, align 4, !tbaa !9
  %19 = add nsw i32 %18, 1
  %20 = sext i32 %19 to i64
  %21 = getelementptr inbounds [513 x i8], ptr %17, i64 0, i64 %20
  %22 = load i8, ptr %21, align 1, !tbaa !16
  %23 = zext i8 %22 to i32
  %24 = shl i32 %23, 8
  %25 = add i32 %15, %24
  store i32 %25, ptr %7, align 4, !tbaa !9
  %26 = load i32, ptr %7, align 4, !tbaa !9
  %27 = shl i32 %26, 4
  store i32 %27, ptr %7, align 4, !tbaa !9
  %28 = load ptr, ptr %6, align 8, !tbaa !4
  %29 = getelementptr inbounds nuw %struct.AACArithState, ptr %28, i32 0, i32 2
  %30 = getelementptr inbounds [4 x i8], ptr %29, i64 0, i64 1
  %31 = load i8, ptr %30, align 1, !tbaa !16
  %32 = zext i8 %31 to i32
  %33 = load i32, ptr %7, align 4, !tbaa !9
  %34 = add i32 %33, %32
  store i32 %34, ptr %7, align 4, !tbaa !9
  %35 = load i32, ptr %7, align 4, !tbaa !9
  %36 = trunc i32 %35 to i16
  %37 = load ptr, ptr %6, align 8, !tbaa !4
  %38 = getelementptr inbounds nuw %struct.AACArithState, ptr %37, i32 0, i32 3
  store i16 %36, ptr %38, align 4, !tbaa !20
  %39 = load i32, ptr %8, align 4, !tbaa !9
  %40 = icmp sgt i32 %39, 3
  br i1 %40, label %41, label %63

41:                                               ; preds = %4
  %42 = load ptr, ptr %6, align 8, !tbaa !4
  %43 = getelementptr inbounds nuw %struct.AACArithState, ptr %42, i32 0, i32 2
  %44 = getelementptr inbounds [4 x i8], ptr %43, i64 0, i64 3
  %45 = load i8, ptr %44, align 1, !tbaa !16
  %46 = zext i8 %45 to i32
  %47 = load ptr, ptr %6, align 8, !tbaa !4
  %48 = getelementptr inbounds nuw %struct.AACArithState, ptr %47, i32 0, i32 2
  %49 = getelementptr inbounds [4 x i8], ptr %48, i64 0, i64 2
  %50 = load i8, ptr %49, align 2, !tbaa !16
  %51 = zext i8 %50 to i32
  %52 = add nsw i32 %46, %51
  %53 = load ptr, ptr %6, align 8, !tbaa !4
  %54 = getelementptr inbounds nuw %struct.AACArithState, ptr %53, i32 0, i32 2
  %55 = getelementptr inbounds [4 x i8], ptr %54, i64 0, i64 1
  %56 = load i8, ptr %55, align 1, !tbaa !16
  %57 = zext i8 %56 to i32
  %58 = add nsw i32 %52, %57
  %59 = icmp slt i32 %58, 5
  br i1 %59, label %60, label %63

60:                                               ; preds = %41
  %61 = load i32, ptr %7, align 4, !tbaa !9
  %62 = add i32 %61, 65536
  store i32 %62, ptr %5, align 4
  br label %65

63:                                               ; preds = %41, %4
  %64 = load i32, ptr %7, align 4, !tbaa !9
  store i32 %64, ptr %5, align 4
  br label %65

65:                                               ; preds = %63, %60
  %66 = load i32, ptr %5, align 4
  ret i32 %66
}