; Function Attrs: mustprogress nofree norecurse nosync nounwind willreturn memory(argmem: readwrite) uwtable
define range(i32 0, 1114352) i32 @ff_aac_ac_get_context(ptr noundef captures(none) %0, i32 noundef %1, i32 noundef %2, i32 noundef %3) local_unnamed_addr #4 {
  %5 = getelementptr inbounds nuw i8, ptr %0, i64 524
  %6 = load i16, ptr %5, align 4, !tbaa !13
  %7 = add nsw i32 %2, 1
  %8 = sext i32 %7 to i64
  %9 = getelementptr inbounds [513 x i8], ptr %0, i64 0, i64 %8
  %10 = load i8, ptr %9, align 1, !tbaa !10
  %11 = zext i8 %10 to i32
  %12 = shl nuw nsw i32 %11, 12
  %13 = lshr i16 %6, 4
  %14 = and i16 %13, 4080
  %15 = zext nneg i16 %14 to i32
  %16 = or disjoint i32 %12, %15
  %17 = getelementptr inbounds nuw i8, ptr %0, i64 521
  %18 = load i8, ptr %17, align 1, !tbaa !10
  %19 = zext i8 %18 to i32
  %20 = add nuw nsw i32 %16, %19
  %21 = trunc i32 %20 to i16
  store i16 %21, ptr %5, align 4, !tbaa !13
  %22 = icmp sgt i32 %2, 3
  br i1 %22, label %23, label %34

23:                                               ; preds = %4
  %24 = getelementptr inbounds nuw i8, ptr %0, i64 523
  %25 = load i8, ptr %24, align 1, !tbaa !10
  %26 = zext i8 %25 to i32
  %27 = getelementptr inbounds nuw i8, ptr %0, i64 522
  %28 = load i8, ptr %27, align 2, !tbaa !10
  %29 = zext i8 %28 to i32
  %30 = add nuw nsw i32 %26, %19
  %31 = add nuw nsw i32 %30, %29
  %32 = icmp samesign ult i32 %31, 5
  %33 = add nuw nsw i32 %20, 65536
  %spec.select = select i1 %32, i32 %33, i32 %20
  br label %34

34:                                               ; preds = %23, %4
  %.0 = phi i32 [ %20, %4 ], [ %spec.select, %23 ]
  ret i32 %.0
}